; Function Attrs: mustprogress nofree norecurse nosync nounwind willreturn memory(argmem: read) uwtable
define internal i32 @Predictor8_SSE2(ptr readnone captures(none) %0, ptr noundef readonly captures(none) %1) #1 {
  %3 = getelementptr inbounds i8, ptr %1, i64 -4
  %4 = load i32, ptr %3, align 4, !tbaa !7
  %5 = load i32, ptr %1, align 4, !tbaa !7
  %6 = insertelement <4 x i32> <i32 poison, i32 0, i32 0, i32 0>, i32 %4, i64 0
  %7 = insertelement <4 x i32> <i32 poison, i32 0, i32 0, i32 0>, i32 %5, i64 0
  %8 = bitcast <4 x i32> %6 to <16 x i8>
  %9 = bitcast <4 x i32> %7 to <16 x i8>
  %10 = tail call <16 x i8> @llvm.x86.sse2.pavg.b(<16 x i8> %8, <16 x i8> %9)
  %11 = xor <4 x i32> %7, %6
  %12 = bitcast <4 x i32> %11 to <16 x i8>
  %13 = and <16 x i8> %12, <i8 1, i8 1, i8 1, i8 1, i8 poison, i8 poison, i8 poison, i8 poison, i8 poison, i8 poison, i8 poison, i8 poison, i8 poison, i8 poison, i8 poison, i8 poison>
  %14 = sub <16 x i8> %10, %13
  %15 = bitcast <16 x i8> %14 to <4 x i32>
  %16 = extractelement <4 x i32> %15, i64 0
  ret i32 %16
}